target datalayout = "e-m:e-p270:32:32-p271:32:32-p272:64:64-i64:64-f80:128-n8:16:32:64-S128"
target triple = "x86_64-pc-linux-gnu"

@.str = private unnamed_addr constant [3 x i8] c"%d\00", align 1
@.str.1 = private unnamed_addr constant [4 x i8] c"%d,\00", align 1

; Function Attrs: noinline nounwind uwtable
define dso_local i32 @main(i32 %0, i8** %1) #0 {
  %3 = alloca i32, align 4
  %4 = alloca i32, align 4
  %5 = alloca i8**, align 8
  %6 = alloca i32, align 4
  %7 = alloca i32, align 4
  %8 = alloca i32, align 4
  %9 = alloca [300 x i32], align 16
  %10 = alloca i32, align 4
  %11 = alloca i32, align 4
  %12 = alloca i32, align 4
  %13 = alloca double, align 8
  %14 = alloca [300 x double], align 16
  %15 = alloca double, align 8
  store i32 0, i32* %3, align 4
  store i32 %0, i32* %4, align 4
  store i8** %1, i8*** %5, align 8
  store i32 0, i32* %7, align 4
  store i32 0, i32* %8, align 4
  store i32 0, i32* %10, align 4
  store i32 0, i32* %11, align 4
  store i32 0, i32* %12, align 4
  store double 0.000000e+00, double* %15, align 8
  %16 = call i32 (i8*, ...) @__isoc99_scanf(i8* getelementptr inbounds ([3 x i8], [3 x i8]* @.str, i64 0, i64 0), i32* %6)
  store i32 0, i32* %7, align 4
  br label %17

17:                                               ; preds = %32, %2
  %18 = load i32, i32* %7, align 4
  %19 = load i32, i32* %6, align 4
  %20 = icmp slt i32 %18, %19
  br i1 %20, label %21, label %35

21:                                               ; preds = %17
  %22 = load i32, i32* %7, align 4
  %23 = sext i32 %22 to i64
  %24 = getelementptr inbounds [300 x i32], [300 x i32]* %9, i64 0, i64 %23
  %25 = call i32 (i8*, ...) @__isoc99_scanf(i8* getelementptr inbounds ([3 x i8], [3 x i8]* @.str, i64 0, i64 0), i32* %24)
  %26 = load i32, i32* %10, align 4
  %27 = load i32, i32* %7, align 4
  %28 = sext i32 %27 to i64
  %29 = getelementptr inbounds [300 x i32], [300 x i32]* %9, i64 0, i64 %28
  %30 = load i32, i32* %29, align 4
  %31 = add nsw i32 %26, %30
  store i32 %31, i32* %10, align 4
  br label %32

32:                                               ; preds = %21
  %33 = load i32, i32* %7, align 4
  %34 = add nsw i32 %33, 1
  store i32 %34, i32* %7, align 4
  br label %17

35:                                               ; preds = %17
  %36 = load i32, i32* %10, align 4
  %37 = sitofp i32 %36 to double
  %38 = fmul double %37, 1.000000e+00
  %39 = load i32, i32* %6, align 4
  %40 = sitofp i32 %39 to double
  %41 = fdiv double %38, %40
  store double %41, double* %13, align 8
  store i32 0, i32* %7, align 4
  br label %42

42:                                               ; preds = %58, %35
  %43 = load i32, i32* %7, align 4
  %44 = load i32, i32* %6, align 4
  %45 = icmp slt i32 %43, %44
  br i1 %45, label %46, label %61

46:                                               ; preds = %42
  %47 = load double, double* %13, align 8
  %48 = load i32, i32* %7, align 4
  %49 = sext i32 %48 to i64
  %50 = getelementptr inbounds [300 x i32], [300 x i32]* %9, i64 0, i64 %49
  %51 = load i32, i32* %50, align 4
  %52 = sitofp i32 %51 to double
  %53 = fsub double %47, %52
  %54 = call double @llvm.fabs.f64(double %53)
  %55 = load i32, i32* %7, align 4
  %56 = sext i32 %55 to i64
  %57 = getelementptr inbounds [300 x double], [300 x double]* %14, i64 0, i64 %56
  store double %54, double* %57, align 8
  br label %58

58:                                               ; preds = %46
  %59 = load i32, i32* %7, align 4
  %60 = add nsw i32 %59, 1
  store i32 %60, i32* %7, align 4
  br label %42

61:                                               ; preds = %42
  store i32 0, i32* %7, align 4
  br label %62

62:                                               ; preds = %79, %61
  %63 = load i32, i32* %7, align 4
  %64 = load i32, i32* %6, align 4
  %65 = icmp slt i32 %63, %64
  br i1 %65, label %66, label %82

66:                                               ; preds = %62
  %67 = load i32, i32* %7, align 4
  %68 = sext i32 %67 to i64
  %69 = getelementptr inbounds [300 x double], [300 x double]* %14, i64 0, i64 %68
  %70 = load double, double* %69, align 8
  %71 = load double, double* %15, align 8
  %72 = fcmp ogt double %70, %71
  br i1 %72, label %73, label %78

73:                                               ; preds = %66
  %74 = load i32, i32* %7, align 4
  %75 = sext i32 %74 to i64
  %76 = getelementptr inbounds [300 x double], [300 x double]* %14, i64 0, i64 %75
  %77 = load double, double* %76, align 8
  store double %77, double* %15, align 8
  br label %78

78:                                               ; preds = %73, %66
  br label %79

79:                                               ; preds = %78
  %80 = load i32, i32* %7, align 4
  %81 = add nsw i32 %80, 1
  store i32 %81, i32* %7, align 4
  br label %62

82:                                               ; preds = %62
  store i32 0, i32* %7, align 4
  br label %83

83:                                               ; preds = %98, %82
  %84 = load i32, i32* %7, align 4
  %85 = load i32, i32* %6, align 4
  %86 = icmp slt i32 %84, %85
  br i1 %86, label %87, label %101

87:                                               ; preds = %83
  %88 = load i32, i32* %7, align 4
  %89 = sext i32 %88 to i64
  %90 = getelementptr inbounds [300 x double], [300 x double]* %14, i64 0, i64 %89
  %91 = load double, double* %90, align 8
  %92 = load double, double* %15, align 8
  %93 = fcmp oeq double %91, %92
  br i1 %93, label %94, label %97

94:                                               ; preds = %87
  %95 = load i32, i32* %11, align 4
  %96 = add nsw i32 %95, 1
  store i32 %96, i32* %11, align 4
  br label %97

97:                                               ; preds = %94, %87
  br label %98

98:                                               ; preds = %97
  %99 = load i32, i32* %7, align 4
  %100 = add nsw i32 %99, 1
  store i32 %100, i32* %7, align 4
  br label %83

101:                                              ; preds = %83
  %102 = load i32, i32* %11, align 4
  %103 = icmp eq i32 %102, 0
  br i1 %103, label %104, label %127

104:                                              ; preds = %101
  store i32 0, i32* %7, align 4
  br label %105

105:                                              ; preds = %123, %104
  %106 = load i32, i32* %7, align 4
  %107 = load i32, i32* %6, align 4
  %108 = icmp slt i32 %106, %107
  br i1 %108, label %109, label %126

109:                                              ; preds = %105
  %110 = load i32, i32* %7, align 4
  %111 = sext i32 %110 to i64
  %112 = getelementptr inbounds [300 x double], [300 x double]* %14, i64 0, i64 %111
  %113 = load double, double* %112, align 8
  %114 = load double, double* %15, align 8
  %115 = fcmp oeq double %113, %114
  br i1 %115, label %116, label %122

116:                                              ; preds = %109
  %117 = load i32, i32* %7, align 4
  %118 = sext i32 %117 to i64
  %119 = getelementptr inbounds [300 x i32], [300 x i32]* %9, i64 0, i64 %118
  %120 = load i32, i32* %119, align 4
  %121 = call i32 (i8*, ...) @printf(i8* getelementptr inbounds ([3 x i8], [3 x i8]* @.str, i64 0, i64 0), i32 %120)
  br label %122

122:                                              ; preds = %116, %109
  br label %123

123:                                              ; preds = %122
  %124 = load i32, i32* %7, align 4
  %125 = add nsw i32 %124, 1
  store i32 %125, i32* %7, align 4
  br label %105

126:                                              ; preds = %105
  br label %163

127:                                              ; preds = %101
  store i32 0, i32* %7, align 4
  br label %128

128:                                              ; preds = %159, %127
  %129 = load i32, i32* %7, align 4
  %130 = load i32, i32* %6, align 4
  %131 = icmp slt i32 %129, %130
  br i1 %131, label %132, label %162

132:                                              ; preds = %128
  %133 = load i32, i32* %7, align 4
  %134 = sext i32 %133 to i64
  %135 = getelementptr inbounds [300 x double], [300 x double]* %14, i64 0, i64 %134
  %136 = load double, double* %135, align 8
  %137 = load double, double* %15, align 8
  %138 = fcmp oeq double %136, %137
  br i1 %138, label %139, label %158

139:                                              ; preds = %132
  %140 = load i32, i32* %12, align 4
  %141 = add nsw i32 %140, 1
  store i32 %141, i32* %12, align 4
  %142 = load i32, i32* %12, align 4
  %143 = load i32, i32* %11, align 4
  %144 = icmp slt i32 %142, %143
  br i1 %144, label %145, label %151

145:                                              ; preds = %139
  %146 = load i32, i32* %7, align 4
  %147 = sext i32 %146 to i64
  %148 = getelementptr inbounds [300 x i32], [300 x i32]* %9, i64 0, i64 %147
  %149 = load i32, i32* %148, align 4
  %150 = call i32 (i8*, ...) @printf(i8* getelementptr inbounds ([4 x i8], [4 x i8]* @.str.1, i64 0, i64 0), i32 %149)
  br label %157

151:                                              ; preds = %139
  %152 = load i32, i32* %7, align 4
  %153 = sext i32 %152 to i64
  %154 = getelementptr inbounds [300 x i32], [300 x i32]* %9, i64 0, i64 %153
  %155 = load i32, i32* %154, align 4
  %156 = call i32 (i8*, ...) @printf(i8* getelementptr inbounds ([3 x i8], [3 x i8]* @.str, i64 0, i64 0), i32 %155)
  br label %157

157:                                              ; preds = %151, %145
  br label %158

158:                                              ; preds = %157, %132
  br label %159

159:                                              ; preds = %158
  %160 = load i32, i32* %7, align 4
  %161 = add nsw i32 %160, 1
  store i32 %161, i32* %7, align 4
  br label %128

162:                                              ; preds = %128
  br label %163

163:                                              ; preds = %162, %126
  ret i32 0
}